; ModuleID = '20/680.c'
source_filename = "20/680.c"
target datalayout = "e-m:e-p270:32:32-p271:32:32-p272:64:64-i64:64-f80:128-n8:16:32:64-S128"
target triple = "x86_64-pc-linux-gnu"

@.str = private unnamed_addr constant [6 x i8] c"%s %s\00", align 1
@.str.1 = private unnamed_addr constant [3 x i8] c"%c\00", align 1
@.str.2 = private unnamed_addr constant [2 x i8] c"\0A\00", align 1

; Function Attrs: noinline nounwind uwtable
define dso_local void @main() #0 {
  %1 = alloca i8*, align 8
  %2 = alloca i8*, align 8
  %3 = alloca i8*, align 8
  %4 = alloca i32, align 4
  %5 = alloca i32, align 4
  %6 = alloca i32, align 4
  %7 = alloca i32, align 4
  %8 = alloca i32, align 4
  %9 = alloca i32, align 4
  store i32 0, i32* %9, align 4
  %10 = call noalias i8* @malloc(i64 11) #4
  store i8* %10, i8** %1, align 8
  %11 = call noalias i8* @malloc(i64 4) #4
  store i8* %11, i8** %2, align 8
  %12 = call noalias i8* @calloc(i64 30, i64 1) #4
  store i8* %12, i8** %3, align 8
  br label %13

13:                                               ; preds = %137, %0
  %14 = load i8*, i8** %1, align 8
  %15 = load i8*, i8** %2, align 8
  %16 = call i32 (i8*, ...) @__isoc99_scanf(i8* getelementptr inbounds ([6 x i8], [6 x i8]* @.str, i64 0, i64 0), i8* %14, i8* %15)
  %17 = icmp ne i32 %16, -1
  br i1 %17, label %18, label %139

18:                                               ; preds = %13
  %19 = load i8*, i8** %1, align 8
  %20 = call i64 @strlen(i8* %19) #5
  %21 = trunc i64 %20 to i32
  store i32 %21, i32* %6, align 4
  %22 = load i8*, i8** %2, align 8
  %23 = call i64 @strlen(i8* %22) #5
  %24 = trunc i64 %23 to i32
  store i32 %24, i32* %7, align 4
  %25 = load i8*, i8** %1, align 8
  %26 = load i8, i8* %25, align 1
  %27 = sext i8 %26 to i32
  store i32 %27, i32* %8, align 4
  store i32 1, i32* %4, align 4
  br label %28

28:                                               ; preds = %50, %18
  %29 = load i32, i32* %4, align 4
  %30 = load i32, i32* %6, align 4
  %31 = icmp slt i32 %29, %30
  br i1 %31, label %32, label %53

32:                                               ; preds = %28
  %33 = load i8*, i8** %1, align 8
  %34 = load i32, i32* %4, align 4
  %35 = sext i32 %34 to i64
  %36 = getelementptr inbounds i8, i8* %33, i64 %35
  %37 = load i8, i8* %36, align 1
  %38 = sext i8 %37 to i32
  %39 = load i32, i32* %8, align 4
  %40 = icmp sgt i32 %38, %39
  br i1 %40, label %41, label %49

41:                                               ; preds = %32
  %42 = load i8*, i8** %1, align 8
  %43 = load i32, i32* %4, align 4
  %44 = sext i32 %43 to i64
  %45 = getelementptr inbounds i8, i8* %42, i64 %44
  %46 = load i8, i8* %45, align 1
  %47 = sext i8 %46 to i32
  store i32 %47, i32* %8, align 4
  %48 = load i32, i32* %4, align 4
  store i32 %48, i32* %9, align 4
  br label %49

49:                                               ; preds = %41, %32
  br label %50

50:                                               ; preds = %49
  %51 = load i32, i32* %4, align 4
  %52 = add nsw i32 %51, 1
  store i32 %52, i32* %4, align 4
  br label %28

53:                                               ; preds = %28
  store i32 0, i32* %4, align 4
  br label %54

54:                                               ; preds = %68, %53
  %55 = load i32, i32* %4, align 4
  %56 = load i32, i32* %9, align 4
  %57 = icmp sle i32 %55, %56
  br i1 %57, label %58, label %71

58:                                               ; preds = %54
  %59 = load i8*, i8** %1, align 8
  %60 = load i32, i32* %4, align 4
  %61 = sext i32 %60 to i64
  %62 = getelementptr inbounds i8, i8* %59, i64 %61
  %63 = load i8, i8* %62, align 1
  %64 = load i8*, i8** %3, align 8
  %65 = load i32, i32* %4, align 4
  %66 = sext i32 %65 to i64
  %67 = getelementptr inbounds i8, i8* %64, i64 %66
  store i8 %63, i8* %67, align 1
  br label %68

68:                                               ; preds = %58
  %69 = load i32, i32* %4, align 4
  %70 = add nsw i32 %69, 1
  store i32 %70, i32* %4, align 4
  br label %54

71:                                               ; preds = %54
  %72 = load i32, i32* %9, align 4
  %73 = add nsw i32 %72, 1
  store i32 %73, i32* %4, align 4
  store i32 0, i32* %5, align 4
  br label %74

74:                                               ; preds = %88, %71
  %75 = load i32, i32* %5, align 4
  %76 = load i32, i32* %7, align 4
  %77 = icmp slt i32 %75, %76
  br i1 %77, label %78, label %93

78:                                               ; preds = %74
  %79 = load i8*, i8** %2, align 8
  %80 = load i32, i32* %5, align 4
  %81 = sext i32 %80 to i64
  %82 = getelementptr inbounds i8, i8* %79, i64 %81
  %83 = load i8, i8* %82, align 1
  %84 = load i8*, i8** %3, align 8
  %85 = load i32, i32* %4, align 4
  %86 = sext i32 %85 to i64
  %87 = getelementptr inbounds i8, i8* %84, i64 %86
  store i8 %83, i8* %87, align 1
  br label %88

88:                                               ; preds = %78
  %89 = load i32, i32* %4, align 4
  %90 = add nsw i32 %89, 1
  store i32 %90, i32* %4, align 4
  %91 = load i32, i32* %5, align 4
  %92 = add nsw i32 %91, 1
  store i32 %92, i32* %5, align 4
  br label %74

93:                                               ; preds = %74
  %94 = load i32, i32* %9, align 4
  %95 = load i32, i32* %7, align 4
  %96 = add nsw i32 %94, %95
  %97 = add nsw i32 %96, 1
  store i32 %97, i32* %4, align 4
  %98 = load i32, i32* %9, align 4
  %99 = add nsw i32 %98, 1
  store i32 %99, i32* %5, align 4
  br label %100

100:                                              ; preds = %114, %93
  %101 = load i32, i32* %5, align 4
  %102 = load i32, i32* %6, align 4
  %103 = icmp slt i32 %101, %102
  br i1 %103, label %104, label %119

104:                                              ; preds = %100
  %105 = load i8*, i8** %1, align 8
  %106 = load i32, i32* %5, align 4
  %107 = sext i32 %106 to i64
  %108 = getelementptr inbounds i8, i8* %105, i64 %107
  %109 = load i8, i8* %108, align 1
  %110 = load i8*, i8** %3, align 8
  %111 = load i32, i32* %4, align 4
  %112 = sext i32 %111 to i64
  %113 = getelementptr inbounds i8, i8* %110, i64 %112
  store i8 %109, i8* %113, align 1
  br label %114

114:                                              ; preds = %104
  %115 = load i32, i32* %4, align 4
  %116 = add nsw i32 %115, 1
  store i32 %116, i32* %4, align 4
  %117 = load i32, i32* %5, align 4
  %118 = add nsw i32 %117, 1
  store i32 %118, i32* %5, align 4
  br label %100

119:                                              ; preds = %100
  store i32 0, i32* %4, align 4
  br label %120

120:                                              ; preds = %134, %119
  %121 = load i32, i32* %4, align 4
  %122 = load i32, i32* %6, align 4
  %123 = load i32, i32* %7, align 4
  %124 = add nsw i32 %122, %123
  %125 = icmp slt i32 %121, %124
  br i1 %125, label %126, label %137

126:                                              ; preds = %120
  %127 = load i8*, i8** %3, align 8
  %128 = load i32, i32* %4, align 4
  %129 = sext i32 %128 to i64
  %130 = getelementptr inbounds i8, i8* %127, i64 %129
  %131 = load i8, i8* %130, align 1
  %132 = sext i8 %131 to i32
  %133 = call i32 (i8*, ...) @printf(i8* getelementptr inbounds ([3 x i8], [3 x i8]* @.str.1, i64 0, i64 0), i32 %132)
  br label %134

134:                                              ; preds = %126
  %135 = load i32, i32* %4, align 4
  %136 = add nsw i32 %135, 1
  store i32 %136, i32* %4, align 4
  br label %120

137:                                              ; preds = %120
  %138 = call i32 (i8*, ...) @printf(i8* getelementptr inbounds ([2 x i8], [2 x i8]* @.str.2, i64 0, i64 0))
  br label %13

139:                                              ; preds = %13
  ret void
}

; Function Attrs: nounwind
declare dso_local noalias i8* @malloc(i64) #1

; Function Attrs: nounwind
declare dso_local noalias i8* @calloc(i64, i64) #1

declare dso_local i32 @__isoc99_scanf(i8*, ...) #2

; Function Attrs: nounwind readonly
declare dso_local i64 @strlen(i8*) #3

declare dso_local i32 @printf(i8*, ...) #2


!llvm.module.flags = !{!0}
!llvm.ident = !{!1}

!0 = !{i32 1, !"wchar_size", i32 4}
!1 = !{!"clang version 10.0.0-4ubuntu1 "}
